LX51 LINKER/LOCATER V4.66.97.0                                                          03/22/2021  21:41:22  PAGE 1


LX51 LINKER/LOCATER V4.66.97.0, INVOKED BY:
C:\KEIL_V5\C51\BIN\LX51.EXE .\BUILD\DEBUG\MAIN.O TO .\build\Debug\DS18B20 temperature sensor PRINT (.\build\Debug\DS18B2
>> 0 temperature sensor.map) REMOVEUNUSED


CPU MODE:     8051 MODE
MEMORY MODEL: SMALL WITH FLOATING POINT ARITHMETIC


INPUT MODULES INCLUDED:
  .\BUILD\DEBUG\MAIN.O (MAIN)
         COMMENT TYPE 0: C51 V9.60.0.0
  C:\KEIL_V5\C51\LIB\C51FPS.LIB (?C?FPADD)
         COMMENT TYPE 1: A51 / ASM51 Assembler
  C:\KEIL_V5\C51\LIB\C51FPS.LIB (?C?FPMUL)
         COMMENT TYPE 1: A51 / ASM51 Assembler
  C:\KEIL_V5\C51\LIB\C51FPS.LIB (?C?FCAST)
         COMMENT TYPE 1: A51 / ASM51 Assembler
  C:\KEIL_V5\C51\LIB\C51FPS.LIB (?C?CASTF)
         COMMENT TYPE 1: A51 / ASM51 Assembler
  C:\KEIL_V5\C51\LIB\C51FPS.LIB (?C?FPGETOPN)
         COMMENT TYPE 1: A51 / ASM51 Assembler
  C:\KEIL_V5\C51\LIB\C51S.LIB (?C_STARTUP)
         COMMENT TYPE 1: A51 / ASM51 Assembler
  C:\KEIL_V5\C51\LIB\C51S.LIB (?C?UIDIV)
         COMMENT TYPE 1: A51 / ASM51 Assembler
  C:\KEIL_V5\C51\LIB\C51S.LIB (?C?LNEG)
         COMMENT TYPE 1: A51 / ASM51 Assembler


ACTIVE MEMORY CLASSES OF MODULE:  .\build\Debug\DS18B20 temperature sensor (MAIN)

BASE        START       END         USED      MEMORY CLASS
==========================================================
C:000000H   C:000000H   C:00FFFFH   0005EDH   CODE
I:000000H   I:000000H   I:00007FH   000016H   DATA
C:000000H   C:000000H   C:00FFFFH   000010H   CONST
I:000000H   I:000000H   I:0000FFH   000001H   IDATA


MEMORY MAP OF MODULE:  .\build\Debug\DS18B20 temperature sensor (MAIN)


START     STOP      LENGTH    ALIGN  RELOC    MEMORY CLASS   SEGMENT NAME
=========================================================================

* * * * * * * * * * *   D A T A   M E M O R Y   * * * * * * * * * * * * *
000000H   000007H   000008H   ---    AT..     DATA           "REG BANK 0"
000008H   00000FH   000008H   BYTE   UNIT     DATA           ?DT?MAIN
000010H   000015H   000006H   BYTE   UNIT     DATA           _DATA_GROUP_
000016H   000016H   000001H   BYTE   UNIT     IDATA          ?STACK

* * * * * * * * * * *   C O D E   M E M O R Y   * * * * * * * * * * * * *
000000H   000002H   000003H   ---    OFFS..   CODE           ?CO??C_STARTUP?0
000003H   000322H   000320H   BYTE   UNIT     CODE           ?C?LIB_CODE
000323H   000492H   000170H   BYTE   UNIT     CODE           ?PR?_DATAPROS?MAIN
000493H   000506H   000074H   BYTE   UNIT     CODE           ?PR?DIGDISPLAY?MAIN
000507H   000541H   00003BH   BYTE   UNIT     CODE           ?PR?READTEMPERATURE?MAIN
000542H   000572H   000031H   BYTE   UNIT     CODE           ?PR?READONECHAR?MAIN
000573H   00059BH   000029H   BYTE   UNIT     CODE           ?PR?_WRITEONECHAR?MAIN
00059CH   0005B2H   000017H   BYTE   UNIT     CODE           ?PR?_DELAY_18B20?MAIN
0005B3H   0005C7H   000015H   BYTE   UNIT     CODE           ?PR?INIT_DS18B20?MAIN
0005C8H   0005D5H   00000EH   BYTE   UNIT     CODE           ?PR?MAIN?MAIN
0005D6H   0005E1H   00000CH   BYTE   UNIT     CODE           ?C_C51STARTUP
0005E2H   0005ECH   00000BH   BYTE   UNIT     CODE           ?PR?_DELAY?MAIN
0005EDH   0005FCH   000010H   BYTE   UNIT     CONST          ?CO?MAIN
LX51 LINKER/LOCATER V4.66.97.0                                                        03/22/2021  21:41:22  PAGE 2





OVERLAY MAP OF MODULE:   .\build\Debug\DS18B20 temperature sensor (MAIN)


FUNCTION/MODULE              BIT_GROUP   DATA_GROUP 
--> CALLED FUNCTION/MODULE  START  STOP  START  STOP
====================================================
?C_C51STARTUP               ----- -----  ----- -----
  +--> MAIN/MAIN

MAIN/MAIN                   ----- -----  ----- -----
  +--> READTEMPERATURE/MAIN
  +--> _DATAPROS/MAIN
  +--> DIGDISPLAY/MAIN

READTEMPERATURE/MAIN        ----- -----  ----- -----
  +--> INIT_DS18B20/MAIN
  +--> _WRITEONECHAR/MAIN
  +--> _DELAY_18B20/MAIN
  +--> READONECHAR/MAIN

INIT_DS18B20/MAIN           ----- -----  0010H 0010H
  +--> _DELAY_18B20/MAIN

_DELAY_18B20/MAIN           ----- -----  ----- -----

_WRITEONECHAR/MAIN          ----- -----  ----- -----
  +--> _DELAY_18B20/MAIN

READONECHAR/MAIN            ----- -----  ----- -----
  +--> _DELAY_18B20/MAIN

_DATAPROS/MAIN              ----- -----  0010H 0015H

DIGDISPLAY/MAIN             ----- -----  ----- -----
  +--> _DELAY/MAIN

_DELAY/MAIN                 ----- -----  ----- -----



PUBLIC SYMBOLS OF MODULE:  .\build\Debug\DS18B20 temperature sensor (MAIN)


      VALUE       CLASS    TYPE      PUBLIC SYMBOL NAME
      =================================================
      0100023FH   CODE     ---       ?C?CASTF
      00000000H   NUMBER   ---       ?C?CODESEG
      0100020BH   CODE     ---       ?C?FCASTC
      01000206H   CODE     ---       ?C?FCASTI
      01000201H   CODE     ---       ?C?FCASTL
      0100000AH   CODE     ---       ?C?FPADD
      01000276H   CODE     ---       ?C?FPGETOPN2
      010000FBH   CODE     ---       ?C?FPMUL
      010002ABH   CODE     ---       ?C?FPNANRESULT
      010002B5H   CODE     ---       ?C?FPOVERFLOW
      0100028DH   CODE     ---       ?C?FPRESULT
      010002A1H   CODE     ---       ?C?FPRESULT2
      01000006H   CODE     ---       ?C?FPSUB
      010002B2H   CODE     ---       ?C?FPUNDERFLOW
      01000315H   CODE     ---       ?C?LNEG
      010002C0H   CODE     ---       ?C?UIDIV
      00000000H   NUMBER   ---       ?C?XDATASEG
LX51 LINKER/LOCATER V4.66.97.0                                                        03/22/2021  21:41:22  PAGE 3


      010005C8H   CODE     ---       ?C_START
      01000000H   CODE     ---       ?C_STARTUP
      01000323H   CODE     ---       _datapros
      010005E2H   CODE     ---       _delay
      010005A2H   CODE     ---       _delay_18B20
      01000573H   CODE     ---       _WriteOneChar
      01000493H   CODE     ---       DigDisplay
      010005B3H   CODE     ---       Init_DS18B20
      010005C8H   CODE     ---       main
      010005EDH   CONST    ---       NsegCode
      01000542H   CODE     ---       ReadOneChar
      01000507H   CODE     ---       ReadTemperature
      00000008H   DATA     ---       SegDisplayData



SYMBOL TABLE OF MODULE:  .\build\Debug\DS18B20 temperature sensor (MAIN)

      VALUE       REP       CLASS    TYPE      SYMBOL NAME
      ====================================================
      ---         MODULE    ---      ---       MAIN
      00000008H   PUBLIC    DATA     ---       SegDisplayData
      010005EDH   PUBLIC    CONST    ---       NsegCode
      010005C8H   PUBLIC    CODE     ---       main
      01000507H   PUBLIC    CODE     ---       ReadTemperature
      01000542H   PUBLIC    CODE     ---       ReadOneChar
      01000573H   PUBLIC    CODE     ---       _WriteOneChar
      010005B3H   PUBLIC    CODE     ---       Init_DS18B20
      010005A2H   PUBLIC    CODE     ---       _delay_18B20
      01000493H   PUBLIC    CODE     ---       DigDisplay
      01000323H   PUBLIC    CODE     ---       _datapros
      010005E2H   PUBLIC    CODE     ---       _delay

      010005E2H   BLOCK     CODE     ---       LVL=0
      ---         BLOCKEND  ---      ---       LVL=0

      01000323H   BLOCK     CODE     ---       LVL=0
      01000327H   BLOCK     CODE     NEAR LAB  LVL=1
      00000012H   SYMBOL    DATA     VOID      tph
      00000014H   SYMBOL    DATA     VOID      tpl
      ---         BLOCKEND  ---      ---       LVL=1
      ---         BLOCKEND  ---      ---       LVL=0

      01000493H   BLOCK     CODE     ---       LVL=0
      01000493H   BLOCK     CODE     NEAR LAB  LVL=1
      00000005H   SYMBOL    DATA     VOID      i
      ---         BLOCKEND  ---      ---       LVL=1
      ---         BLOCKEND  ---      ---       LVL=0

      0100059CH   BLOCK     CODE     ---       LVL=0
      ---         BLOCKEND  ---      ---       LVL=0

      010005A2H   BLOCK     CODE     ---       LVL=0
      ---         BLOCKEND  ---      ---       LVL=0

      010005B3H   BLOCK     CODE     ---       LVL=0
      010005B3H   BLOCK     CODE     NEAR LAB  LVL=1
      00000010H   SYMBOL    DATA     VOID      x
      ---         BLOCKEND  ---      ---       LVL=1
      ---         BLOCKEND  ---      ---       LVL=0

      01000573H   BLOCK     CODE     ---       LVL=0
      01000575H   BLOCK     CODE     NEAR LAB  LVL=1
      00000003H   SYMBOL    DATA     VOID      i
      ---         BLOCKEND  ---      ---       LVL=1
LX51 LINKER/LOCATER V4.66.97.0                                                        03/22/2021  21:41:22  PAGE 4


      ---         BLOCKEND  ---      ---       LVL=0

      01000542H   BLOCK     CODE     ---       LVL=0
      01000542H   BLOCK     CODE     NEAR LAB  LVL=1
      00000005H   SYMBOL    DATA     VOID      i
      00000004H   SYMBOL    DATA     VOID      dat
      ---         BLOCKEND  ---      ---       LVL=1
      ---         BLOCKEND  ---      ---       LVL=0

      01000507H   BLOCK     CODE     ---       LVL=0
      01000507H   BLOCK     CODE     NEAR LAB  LVL=1
      00000003H   SYMBOL    DATA     VOID      a
      00000007H   SYMBOL    DATA     VOID      b
      00000006H   SYMBOL    DATA     VOID      temp
      ---         BLOCKEND  ---      ---       LVL=1
      ---         BLOCKEND  ---      ---       LVL=0

      010005C8H   BLOCK     CODE     ---       LVL=0
      ---         BLOCKEND  ---      ---       LVL=0

      ---         MODULE    ---      ---       ?C?FPADD
      0100000AH   PUBLIC    CODE     ---       ?C?FPADD
      01000006H   PUBLIC    CODE     ---       ?C?FPSUB

      ---         MODULE    ---      ---       ?C?FPMUL
      010000FBH   PUBLIC    CODE     ---       ?C?FPMUL

      ---         MODULE    ---      ---       ?C?FCAST
      0100020BH   PUBLIC    CODE     ---       ?C?FCASTC
      01000206H   PUBLIC    CODE     ---       ?C?FCASTI
      01000201H   PUBLIC    CODE     ---       ?C?FCASTL

      ---         MODULE    ---      ---       ?C?CASTF
      0100023FH   PUBLIC    CODE     ---       ?C?CASTF

      ---         MODULE    ---      ---       ?C?FPGETOPN
      01000276H   PUBLIC    CODE     ---       ?C?FPGETOPN2
      010002ABH   PUBLIC    CODE     ---       ?C?FPNANRESULT
      010002B5H   PUBLIC    CODE     ---       ?C?FPOVERFLOW
      0100028DH   PUBLIC    CODE     ---       ?C?FPRESULT
      010002A1H   PUBLIC    CODE     ---       ?C?FPRESULT2
      010002B2H   PUBLIC    CODE     ---       ?C?FPUNDERFLOW

      ---         MODULE    ---      ---       ?C_STARTUP
      01000000H   PUBLIC    CODE     ---       ?C_STARTUP

      ---         MODULE    ---      ---       ?C?UIDIV
      010002C0H   PUBLIC    CODE     ---       ?C?UIDIV

      ---         MODULE    ---      ---       ?C?LNEG
      01000315H   PUBLIC    CODE     ---       ?C?LNEG

Program Size: data=23.0 xdata=0 const=16 code=1517
LX51 RUN COMPLETE.  0 WARNING(S),  0 ERROR(S)
