LX51 LINKER/LOCATER V4.66.97.0                                                          03/20/2021  22:15:32  PAGE 1


LX51 LINKER/LOCATER V4.66.97.0, INVOKED BY:
C:\KEIL_V5\C51\BIN\LX51.EXE .\BUILD\DEBUG\MAIN.O TO .\build\Debug\DS18B20 temperature sensor PRINT (.\build\Debug\DS18B2
>> 0 temperature sensor.map) REMOVEUNUSED




PROGRAM RECURSIONS REMOVED FROM CALL TREE
=========================================
+--> _DELAY_18B20/MAIN
<--+ _WRITEONECHAR/MAIN



CPU MODE:     8051 MODE
MEMORY MODEL: SMALL


INPUT MODULES INCLUDED:
  .\BUILD\DEBUG\MAIN.O (MAIN)
         COMMENT TYPE 0: C51 V9.60.0.0
  C:\KEIL_V5\C51\LIB\C51S.LIB (?C_STARTUP)
         COMMENT TYPE 1: A51 / ASM51 Assembler
  C:\KEIL_V5\C51\LIB\C51S.LIB (?C?UIDIV)
         COMMENT TYPE 1: A51 / ASM51 Assembler
  C:\KEIL_V5\C51\LIB\C51S.LIB (?C_INIT)
         COMMENT TYPE 1: A51 / ASM51 Assembler


ACTIVE MEMORY CLASSES OF MODULE:  .\build\Debug\DS18B20 temperature sensor (MAIN)

BASE        START       END         USED      MEMORY CLASS
==========================================================
C:000000H   C:000000H   C:00FFFFH   0002A5H   CODE
C:000000H   C:000000H   C:00FFFFH   000010H   CONST
I:000000H   I:000000H   I:00007FH   000010H   DATA
I:000000H   I:000000H   I:0000FFH   000001H   IDATA


MEMORY MAP OF MODULE:  .\build\Debug\DS18B20 temperature sensor (MAIN)


START     STOP      LENGTH    ALIGN  RELOC    MEMORY CLASS   SEGMENT NAME
=========================================================================

* * * * * * * * * * *   D A T A   M E M O R Y   * * * * * * * * * * * * *
000000H   000007H   000008H   ---    AT..     DATA           "REG BANK 0"
000008H   00000FH   000008H   BYTE   UNIT     DATA           ?DT?MAIN
000010H   000010H   000001H   BYTE   UNIT     IDATA          ?STACK

* * * * * * * * * * *   C O D E   M E M O R Y   * * * * * * * * * * * * *
000000H   000002H   000003H   ---    OFFS..   CODE           ?CO??C_STARTUP?0
000003H   00008EH   00008CH   BYTE   UNIT     CODE           ?C_C51STARTUP
00008FH   000102H   000074H   BYTE   UNIT     CODE           ?PR?DIGDISPLAY?MAIN
000103H   000165H   000063H   BYTE   UNIT     CODE           ?PR?MAIN?MAIN
000166H   0001BAH   000055H   BYTE   UNIT     CODE           ?C?LIB_CODE
0001BBH   0001FAH   000040H   BYTE   UNIT     CODE           ?PR?READTEMPERATURE?MAIN
0001FBH   000226H   00002CH   BYTE   UNIT     CODE           ?PR?_WRITEONECHAR?MAIN
000227H   00024EH   000028H   BYTE   UNIT     CODE           ?PR?INIT_DS18B20?MAIN
00024FH   000276H   000028H   BYTE   UNIT     CODE           ?PR?READONECHAR?MAIN
000277H   00028EH   000018H   BYTE   UNIT     CODE           ?PR?_DELAY_18B20?MAIN
00028FH   000299H   00000BH   BYTE   UNIT     CODE           ?PR?_DELAY?MAIN
00029AH   0002A4H   00000BH   BYTE   UNIT     CODE           ?C_INITSEG
0002A5H   0002B4H   000010H   BYTE   UNIT     CONST          ?CO?MAIN


LX51 LINKER/LOCATER V4.66.97.0                                                        03/20/2021  22:15:32  PAGE 2



OVERLAY MAP OF MODULE:   .\build\Debug\DS18B20 temperature sensor (MAIN)


FUNCTION/MODULE              BIT_GROUP   DATA_GROUP 
--> CALLED FUNCTION/MODULE  START  STOP  START  STOP
====================================================
?C_C51STARTUP               ----- -----  ----- -----
  +--> MAIN/MAIN
  +--> ?C_INITSEG

MAIN/MAIN                   ----- -----  ----- -----
  +--> READTEMPERATURE/MAIN
  +--> DIGDISPLAY/MAIN

READTEMPERATURE/MAIN        ----- -----  ----- -----
  +--> INIT_DS18B20/MAIN
  +--> _WRITEONECHAR/MAIN
  +--> _DELAY_18B20/MAIN
  +--> READONECHAR/MAIN

INIT_DS18B20/MAIN           ----- -----  ----- -----
  +--> _DELAY_18B20/MAIN

_DELAY_18B20/MAIN           ----- -----  ----- -----
  +--> _WRITEONECHAR/MAIN

_WRITEONECHAR/MAIN          ----- -----  ----- -----
  +--> _DELAY_18B20/MAIN

READONECHAR/MAIN            ----- -----  ----- -----
  +--> _DELAY_18B20/MAIN

DIGDISPLAY/MAIN             ----- -----  ----- -----
  +--> _DELAY/MAIN

_DELAY/MAIN                 ----- -----  ----- -----

?C_INITSEG                  ----- -----  ----- -----



PUBLIC SYMBOLS OF MODULE:  .\build\Debug\DS18B20 temperature sensor (MAIN)


      VALUE       CLASS    TYPE      PUBLIC SYMBOL NAME
      =================================================
      00000000H   NUMBER   ---       ?C?CODESEG
      01000166H   CODE     ---       ?C?UIDIV
      00000000H   NUMBER   ---       ?C?XDATASEG
      0100004AH   CODE     ---       ?C_START
      01000000H   CODE     ---       ?C_STARTUP
      0100028FH   CODE     ---       _delay
      0100027EH   CODE     ---       _delay_18B20
      010001FBH   CODE     ---       _WriteOneChar
      0100008FH   CODE     ---       DigDisplay
      01000227H   CODE     ---       Init_DS18B20
      01000103H   CODE     ---       main
      010002A5H   CONST    ---       NsegCode
      0100024FH   CODE     ---       ReadOneChar
      010001BBH   CODE     ---       ReadTemperature
      00000008H   DATA     ---       SegDisplayData



LX51 LINKER/LOCATER V4.66.97.0                                                        03/20/2021  22:15:32  PAGE 3


SYMBOL TABLE OF MODULE:  .\build\Debug\DS18B20 temperature sensor (MAIN)

      VALUE       REP       CLASS    TYPE      SYMBOL NAME
      ====================================================
      ---         MODULE    ---      ---       MAIN
      00000008H   PUBLIC    DATA     ---       SegDisplayData
      010002A5H   PUBLIC    CONST    ---       NsegCode
      01000103H   PUBLIC    CODE     ---       main
      0100008FH   PUBLIC    CODE     ---       DigDisplay
      010001BBH   PUBLIC    CODE     ---       ReadTemperature
      010001FBH   PUBLIC    CODE     ---       _WriteOneChar
      0100024FH   PUBLIC    CODE     ---       ReadOneChar
      01000227H   PUBLIC    CODE     ---       Init_DS18B20
      0100027EH   PUBLIC    CODE     ---       _delay_18B20
      0100028FH   PUBLIC    CODE     ---       _delay

      0100028FH   BLOCK     CODE     ---       LVL=0
      ---         BLOCKEND  ---      ---       LVL=0

      01000277H   BLOCK     CODE     ---       LVL=0
      ---         BLOCKEND  ---      ---       LVL=0

      0100027EH   BLOCK     CODE     ---       LVL=0
      ---         BLOCKEND  ---      ---       LVL=0

      01000227H   BLOCK     CODE     ---       LVL=0
      01000227H   BLOCK     CODE     NEAR LAB  LVL=1
      00000005H   SYMBOL    DATA     VOID      x
      ---         BLOCKEND  ---      ---       LVL=1
      ---         BLOCKEND  ---      ---       LVL=0

      0100024FH   BLOCK     CODE     ---       LVL=0
      0100024FH   BLOCK     CODE     NEAR LAB  LVL=1
      00000005H   SYMBOL    DATA     VOID      i
      00000004H   SYMBOL    DATA     VOID      dat
      ---         BLOCKEND  ---      ---       LVL=1
      ---         BLOCKEND  ---      ---       LVL=0

      010001FBH   BLOCK     CODE     ---       LVL=0
      010001FDH   BLOCK     CODE     NEAR LAB  LVL=1
      00000003H   SYMBOL    DATA     VOID      i
      ---         BLOCKEND  ---      ---       LVL=1
      ---         BLOCKEND  ---      ---       LVL=0

      010001BBH   BLOCK     CODE     ---       LVL=0
      010001BBH   BLOCK     CODE     NEAR LAB  LVL=1
      00000003H   SYMBOL    DATA     VOID      a
      00000007H   SYMBOL    DATA     VOID      b
      00000004H   SYMBOL    DATA     VOID      temp
      ---         BLOCKEND  ---      ---       LVL=1
      ---         BLOCKEND  ---      ---       LVL=0

      0100008FH   BLOCK     CODE     ---       LVL=0
      0100008FH   BLOCK     CODE     NEAR LAB  LVL=1
      00000005H   SYMBOL    DATA     VOID      i
      ---         BLOCKEND  ---      ---       LVL=1
      ---         BLOCKEND  ---      ---       LVL=0

      01000103H   BLOCK     CODE     ---       LVL=0
      01000103H   BLOCK     CODE     NEAR LAB  LVL=1
      00000002H   SYMBOL    DATA     VOID      temp
      ---         BLOCKEND  ---      ---       LVL=1
      ---         BLOCKEND  ---      ---       LVL=0

      ---         MODULE    ---      ---       ?C_STARTUP
LX51 LINKER/LOCATER V4.66.97.0                                                        03/20/2021  22:15:32  PAGE 4


      01000000H   PUBLIC    CODE     ---       ?C_STARTUP

      ---         MODULE    ---      ---       ?C?UIDIV
      01000166H   PUBLIC    CODE     ---       ?C?UIDIV

      ---         MODULE    ---      ---       ?C_INIT
      0100004AH   PUBLIC    CODE     ---       ?C_START



*** WARNING L48: IGNORED RECURSIVE CALL
    CALLED:  _DELAY_18B20/MAIN
    CALLER:  _WRITEONECHAR/MAIN

Program Size: data=17.0 xdata=0 const=16 code=677
LX51 RUN COMPLETE.  1 WARNING(S),  0 ERROR(S)
