C51 COMPILER V9.60.0.0   ST7565                                                            04/21/2021 00:04:32 PAGE 1   


C51 COMPILER V9.60.0.0, COMPILATION OF MODULE ST7565
OBJECT MODULE PLACED IN .\build\Debug\st7565.o
COMPILER INVOKED BY: C:\Keil_v5\C51\BIN\C51.exe .\SRC\ST7565.C PRINT(.\build\Debug\st7565.lst) OMF2 TABS(4) CODE NOCOND 
                    -SYMBOLS OPTIMIZE(8,SPEED) SMALL ROM(LARGE) INCDIR(C:\Keil_v5\C51\INC;.\src) DEFINE(__UVISION_VERSION=526) OBJECT(.\build
                    -\Debug\st7565.o)

line level    source

   1          
   2          #include "st7565.h"
   3          
   4          void delay_ms(uint t)
   5          {
   6   1          uint i,j;
   7   1          for ( i = 0; i < 99; i++)
   8   1          {
   9   2              for ( j = 0; j < t; j++);
  10   2          }
  11   1      }
  12          
  13          void LcdSt7565_WriteCmd(uchar cmd)
  14          {
  15   1          LCD12864_CS = 0;
  16   1          LCD12864_RS = 0;//select command mode
  17   1          LCD12864_RD = 1;//disable read
  18   1          LCD12864_WR = 0;//enable write
  19   1          _nop_();
  20   1          _nop_();
  21   1      
  22   1          DATA_PORT = cmd;
  23   1          _nop_();
  24   1          _nop_();
  25   1      
  26   1          LCD12864_WR = 1;//disable write
  27   1      }
  28          
  29          void LcdSt7565_WriteData(uchar dat)
  30          {
  31   1          LCD12864_CS = 0;
  32   1          LCD12864_RS = 1;//select data mode
  33   1          LCD12864_RD = 1;//disable read
  34   1          LCD12864_WR = 0;//enable write
  35   1          _nop_();
  36   1          _nop_();
  37   1      
  38   1          DATA_PORT = dat;
  39   1          _nop_();
  40   1          _nop_();
  41   1      
  42   1          LCD12864_WR = 1;//disable write
  43   1      }
  44          
  45          void Lcd12864_Init(void)
  46          {
  47   1          LCD12864_RSET = 0;
  48   1          delay_ms(1);//delay
  49   1          LCD12864_CS = 0;
  50   1          LCD12864_RSET = 1;
  51   1      
  52   1          LcdSt7565_WriteCmd(0xE2);//reset st7565
  53   1          delay_ms(1);
C51 COMPILER V9.60.0.0   ST7565                                                            04/21/2021 00:04:32 PAGE 2   

  54   1      
  55   1          //0xA0,Narmal(SEG0-SEG131) 0xA1,Reverse(SEG131-SEG0);
  56   1          LcdSt7565_WriteCmd(0xA1);//ADC Select (Segment Driver Direction Select)
  57   1      
  58   1          //0xC0,Narmal(COM0→COM63) 0xC8,Reverse(COM63→COM0);
  59   1          LcdSt7565_WriteCmd(0xC8);//Common Output Mode Select
  60   1      
  61   1          //0xA6,normal:RAM Data “H” 0xA7,reverse:RAM Data “L”
  62   1          LcdSt7565_WriteCmd(0xA6);//Display Normal/Reverse
  63   1      
  64   1          //0xA4,Normal display mode;0xA5,Display all points ON
  65   1          LcdSt7565_WriteCmd(0xA4);//Display All Points ON/OFF
  66   1      
  67   1          //0xA2,1/9 bias; 0xA3,1/7 bias
  68   1          LcdSt7565_WriteCmd(0xA2);//LCD Bias Set
  69   1      
  70   1          //The Booster Ratio (Double Byte Command)
  71   1          LcdSt7565_WriteCmd(0xF8);//Booster Ratio Select Mode Set
  72   1          LcdSt7565_WriteCmd(0x01);//5x
  73   1      
  74   1          //The Electronic Volume (Double Byte Command)
  75   1          LcdSt7565_WriteCmd(0x81);//Set the V0 output voltage electronic volume register
  76   1          LcdSt7565_WriteCmd(0x23);//0x00-0x3F
  77   1      
  78   1          //V0 Voltage Regulator Internal Resistor Ratio Set
  79   1          LcdSt7565_WriteCmd(0x25);//Select internal resistor ratio(Rb/Ra) mode
  80   1          
  81   1          //Power control set
  82   1          LcdSt7565_WriteCmd(0x2F);//Select internal power supply operating mode
  83   1          delay_ms(1);
  84   1      
  85   1           //Display start line set
  86   1           LcdSt7565_WriteCmd(0x40);//Sets the display RAM display start line address
  87   1      
  88   1           //Display ON/OFF
  89   1           LcdSt7565_WriteCmd(0xAF);
  90   1           delay_ms(1);
  91   1      }
  92          
  93          void Lcd12864_ClearScreen(void)
  94          {
  95   1          uchar page,x;
  96   1      
  97   1          for ( page = 0; page < 8; page++)
  98   1          {
  99   2              //Page address set
 100   2              LcdSt7565_WriteCmd(0xB0+page);//Sets the display RAM page address
 101   2              
 102   2              //0-131 0x00,0x83 132bit ST7565 default
 103   2              //4-131 0x04,0x83 128bit LCD12864 use address!
 104   2              //Column address set upper bit[7:4]
 105   2              LcdSt7565_WriteCmd(0x10+0x00);
 106   2              //Column address set lower bit[3:0]
 107   2              LcdSt7565_WriteCmd(0x00+0x04);
 108   2      
 109   2              for(x=0;x<128;x++)
 110   2              {
 111   3                  LcdSt7565_WriteData(0x00);//clear screen dots(128*64)
 112   3              }
 113   2          }
 114   1      }
 115          
C51 COMPILER V9.60.0.0   ST7565                                                            04/21/2021 00:04:32 PAGE 3   

 116          
 117          #ifdef  CHAR_CODE
 118          
 119          #include"charcode.h"
 120          
 121          uchar Lcd12864_Write16CnCHAR(uchar x, uchar y, uchar *cn)
 122          {
 123   1          uchar j, x1, x2, wordNum;
 124   1      
 125   1          //--Y的坐标只能从0到7，大于则直接返回--//
 126   1          if(y > 7)
 127   1          {
 128   2              return 0;
 129   2          }
 130   1      
 131   1          //--X的坐标只能从0到128，大于则直接返回--//
 132   1          if(x > 128)
 133   1          {
 134   2              return 0;
 135   2          }
 136   1          y += 0xB0;     //求取Y坐标的值
 137   1          //--设置Y坐标--//
 138   1          LcdSt7565_WriteCmd(y);
 139   1          while ( *cn != '\0')     //在C语言中字符串结束以‘\0’结尾
 140   1          {   
 141   2          
 142   2              //--设置Y坐标--//
 143   2              LcdSt7565_WriteCmd(y);
 144   2      
 145   2              x1 = (x >> 4) & 0x0F;   //由于X坐标要两句命令，分高低4位，所以这里先取出高4位
 146   2              x2 = x & 0x0F;          //去低四位
 147   2              //--设置X坐标--//
 148   2              LcdSt7565_WriteCmd(0x10 + x1);   //高4位
 149   2              LcdSt7565_WriteCmd(0x04 + x2);  //低4位
 150   2      
 151   2              for (wordNum=0; wordNum<8; wordNum++)
 152   2              {
 153   3                  //--查询要写的字在字库中的位置--//
 154   3                  if ((   CN16CHAR[wordNum].Index[0] == *cn    )
 155   3                       &&(CN16CHAR[wordNum].Index[1] == *(cn+1))
 156   3                       &&(CN16CHAR[wordNum].Index[2] == *(cn+2))
 157   3                       )
 158   3                  {
 159   4                      for (j=0; j<32; j++) //写一个字
 160   4                      {       
 161   5                          if (j == 16)     //由于16X16用到两个Y坐标，当大于等于16时，切换坐标
 162   5                          {
 163   6                              //--设置Y坐标--//
 164   6                              LcdSt7565_WriteCmd(y + 1);
 165   6                  
 166   6                              //--设置X坐标--//
 167   6                              LcdSt7565_WriteCmd(0x10 + x1);//高4位
 168   6                              LcdSt7565_WriteCmd(0x04 + x2);//低4位
 169   6                          }
 170   5                          LcdSt7565_WriteData(CN16CHAR[wordNum].Msk[j]);
 171   5                      }
 172   4                      x += 16;
 173   4                  }//if查到字结束        
 174   3              } //for查字结束 
 175   2              cn += 3;
 176   2          }   //while结束
 177   1          return 1;
C51 COMPILER V9.60.0.0   ST7565                                                            04/21/2021 00:04:32 PAGE 4   

 178   1      }
 179          
 180          #endif
 181          
C51 COMPILER V9.60.0.0   ST7565                                                            04/21/2021 00:04:32 PAGE 5   

ASSEMBLY LISTING OF GENERATED OBJECT CODE


             ; FUNCTION _delay_ms (BEGIN)
                                           ; SOURCE LINE # 4
;---- Variable 't' assigned to Register 'R6/R7' ----
                                           ; SOURCE LINE # 5
                                           ; SOURCE LINE # 7
;---- Variable 'i' assigned to Register 'R4/R5' ----
0000 E4                CLR     A
0001 FD                MOV     R5,A
0002 FC                MOV     R4,A
0003         ?C0001:
                                           ; SOURCE LINE # 8
                                           ; SOURCE LINE # 9
;---- Variable 'j' assigned to Register 'R2/R3' ----
0003 E4                CLR     A
0004 FB                MOV     R3,A
0005 FA                MOV     R2,A
0006         ?C0004:
0006 C3                CLR     C
0007 EB                MOV     A,R3
0008 9F                SUBB    A,R7
0009 EA                MOV     A,R2
000A 9E                SUBB    A,R6
000B 5007              JNC     ?C0003
000D 0B                INC     R3
000E BB0001            CJNE    R3,#00H,?C0031
0011 0A                INC     R2
0012         ?C0031:
0012 80F2              SJMP    ?C0004
                                           ; SOURCE LINE # 10
0014         ?C0003:
0014 0D                INC     R5
0015 BD0001            CJNE    R5,#00H,?C0032
0018 0C                INC     R4
0019         ?C0032:
0019 ED                MOV     A,R5
001A 6463              XRL     A,#063H
001C 4C                ORL     A,R4
001D 70E4              JNZ     ?C0001
                                           ; SOURCE LINE # 11
001F         ?C0007:
001F 22                RET     
             ; FUNCTION _delay_ms (END)

             ; FUNCTION L?0033 (BEGIN)
0000 E500        R     MOV     A,x1
0002 2410              ADD     A,#010H
0004 FF                MOV     R7,A
0005 120000      R     LCALL   _LcdSt7565_WriteCmd
0008 E500        R     MOV     A,x2
000A 2404              ADD     A,#04H
000C FF                MOV     R7,A
             ; FUNCTION _LcdSt7565_WriteCmd (BEGIN)
                                           ; SOURCE LINE # 13
;---- Variable 'cmd' assigned to Register 'R7' ----
                                           ; SOURCE LINE # 14
                                           ; SOURCE LINE # 15
000D C2B2              CLR     LCD12864_CS
                                           ; SOURCE LINE # 16
000F C2A6              CLR     LCD12864_RS
C51 COMPILER V9.60.0.0   ST7565                                                            04/21/2021 00:04:32 PAGE 6   

                                           ; SOURCE LINE # 17
0011 D2A5              SETB    LCD12864_RD
                                           ; SOURCE LINE # 18
0013 C2A7              CLR     LCD12864_WR
                                           ; SOURCE LINE # 19
0015 00                NOP     
                                           ; SOURCE LINE # 20
0016 00                NOP     
                                           ; SOURCE LINE # 22
0017 8F80              MOV     P0,R7
                                           ; SOURCE LINE # 23
0019 00                NOP     
                                           ; SOURCE LINE # 24
001A 00                NOP     
                                           ; SOURCE LINE # 26
001B D2A7              SETB    LCD12864_WR
                                           ; SOURCE LINE # 27
001D 22                RET     
             ; FUNCTION _LcdSt7565_WriteCmd (END)

             ; FUNCTION _LcdSt7565_WriteData (BEGIN)
                                           ; SOURCE LINE # 29
;---- Variable 'dat' assigned to Register 'R7' ----
                                           ; SOURCE LINE # 30
                                           ; SOURCE LINE # 31
0000 C2B2              CLR     LCD12864_CS
                                           ; SOURCE LINE # 32
0002 D2A6              SETB    LCD12864_RS
                                           ; SOURCE LINE # 33
0004 D2A5              SETB    LCD12864_RD
                                           ; SOURCE LINE # 34
0006 C2A7              CLR     LCD12864_WR
                                           ; SOURCE LINE # 35
0008 00                NOP     
                                           ; SOURCE LINE # 36
0009 00                NOP     
                                           ; SOURCE LINE # 38
000A 8F80              MOV     P0,R7
                                           ; SOURCE LINE # 39
000C 00                NOP     
                                           ; SOURCE LINE # 40
000D 00                NOP     
                                           ; SOURCE LINE # 42
000E D2A7              SETB    LCD12864_WR
                                           ; SOURCE LINE # 43
0010 22                RET     
             ; FUNCTION _LcdSt7565_WriteData (END)

             ; FUNCTION Lcd12864_Init (BEGIN)
                                           ; SOURCE LINE # 45
                                           ; SOURCE LINE # 46
                                           ; SOURCE LINE # 47
0000 C2B3              CLR     LCD12864_RSET
                                           ; SOURCE LINE # 48
0002 7F01              MOV     R7,#01H
0004 7E00              MOV     R6,#00H
0006 120000      R     LCALL   _delay_ms
                                           ; SOURCE LINE # 49
0009 C2B2              CLR     LCD12864_CS
                                           ; SOURCE LINE # 50
000B D2B3              SETB    LCD12864_RSET
                                           ; SOURCE LINE # 52
C51 COMPILER V9.60.0.0   ST7565                                                            04/21/2021 00:04:32 PAGE 7   

000D 7FE2              MOV     R7,#0E2H
000F 120000      R     LCALL   _LcdSt7565_WriteCmd
                                           ; SOURCE LINE # 53
0012 7F01              MOV     R7,#01H
0014 120000      R     LCALL   _delay_ms
                                           ; SOURCE LINE # 56
0017 7FA1              MOV     R7,#0A1H
0019 120000      R     LCALL   _LcdSt7565_WriteCmd
                                           ; SOURCE LINE # 59
001C 7FC8              MOV     R7,#0C8H
001E 120000      R     LCALL   _LcdSt7565_WriteCmd
                                           ; SOURCE LINE # 62
0021 7FA6              MOV     R7,#0A6H
0023 120000      R     LCALL   _LcdSt7565_WriteCmd
                                           ; SOURCE LINE # 65
0026 7FA4              MOV     R7,#0A4H
0028 120000      R     LCALL   _LcdSt7565_WriteCmd
                                           ; SOURCE LINE # 68
002B 7FA2              MOV     R7,#0A2H
002D 120000      R     LCALL   _LcdSt7565_WriteCmd
                                           ; SOURCE LINE # 71
0030 7FF8              MOV     R7,#0F8H
0032 120000      R     LCALL   _LcdSt7565_WriteCmd
                                           ; SOURCE LINE # 72
0035 7F01              MOV     R7,#01H
0037 120000      R     LCALL   _LcdSt7565_WriteCmd
                                           ; SOURCE LINE # 75
003A 7F81              MOV     R7,#081H
003C 120000      R     LCALL   _LcdSt7565_WriteCmd
                                           ; SOURCE LINE # 76
003F 7F23              MOV     R7,#023H
0041 120000      R     LCALL   _LcdSt7565_WriteCmd
                                           ; SOURCE LINE # 79
0044 7F25              MOV     R7,#025H
0046 120000      R     LCALL   _LcdSt7565_WriteCmd
                                           ; SOURCE LINE # 82
0049 7F2F              MOV     R7,#02FH
004B 120000      R     LCALL   _LcdSt7565_WriteCmd
                                           ; SOURCE LINE # 83
004E 7F01              MOV     R7,#01H
0050 120000      R     LCALL   _delay_ms
                                           ; SOURCE LINE # 86
0053 7F40              MOV     R7,#040H
0055 120000      R     LCALL   _LcdSt7565_WriteCmd
                                           ; SOURCE LINE # 89
0058 7FAF              MOV     R7,#0AFH
005A 120000      R     LCALL   _LcdSt7565_WriteCmd
                                           ; SOURCE LINE # 90
005D 7F01              MOV     R7,#01H
005F 020000      R     LJMP    _delay_ms
             ; FUNCTION Lcd12864_Init (END)

             ; FUNCTION Lcd12864_ClearScreen (BEGIN)
                                           ; SOURCE LINE # 93
                                           ; SOURCE LINE # 94
                                           ; SOURCE LINE # 97
;---- Variable 'page' assigned to Register 'R6' ----
0000 E4                CLR     A
0001 FE                MOV     R6,A
0002         ?C0011:
0002 EE                MOV     A,R6
0003 C3                CLR     C
C51 COMPILER V9.60.0.0   ST7565                                                            04/21/2021 00:04:32 PAGE 8   

0004 9408              SUBB    A,#08H
0006 7480              MOV     A,#080H
0008 9480              SUBB    A,#080H
000A 5028              JNC     ?C0017
                                           ; SOURCE LINE # 98
                                           ; SOURCE LINE # 100
000C EE                MOV     A,R6
000D 24B0              ADD     A,#0B0H
000F FF                MOV     R7,A
0010 120000      R     LCALL   _LcdSt7565_WriteCmd
                                           ; SOURCE LINE # 105
0013 7F10              MOV     R7,#010H
0015 120000      R     LCALL   _LcdSt7565_WriteCmd
                                           ; SOURCE LINE # 107
0018 7F04              MOV     R7,#04H
001A 120000      R     LCALL   _LcdSt7565_WriteCmd
                                           ; SOURCE LINE # 109
;---- Variable 'x' assigned to Register 'R5' ----
001D E4                CLR     A
001E FD                MOV     R5,A
001F         ?C0014:
001F ED                MOV     A,R5
0020 C3                CLR     C
0021 9480              SUBB    A,#080H
0023 7480              MOV     A,#080H
0025 9480              SUBB    A,#080H
0027 5008              JNC     ?C0013
                                           ; SOURCE LINE # 110
                                           ; SOURCE LINE # 111
0029 E4                CLR     A
002A FF                MOV     R7,A
002B 120000      R     LCALL   _LcdSt7565_WriteData
                                           ; SOURCE LINE # 112
002E 0D                INC     R5
002F 80EE              SJMP    ?C0014
                                           ; SOURCE LINE # 113
0031         ?C0013:
0031 0E                INC     R6
0032 80CE              SJMP    ?C0011
                                           ; SOURCE LINE # 114
0034         ?C0017:
0034 22                RET     
             ; FUNCTION Lcd12864_ClearScreen (END)

             ; FUNCTION _Lcd12864_Write16CnCHAR (BEGIN)
                                           ; SOURCE LINE # 121
0000 8F00        R     MOV     x,R7
0002 8D00        R     MOV     y,R5
;---- Variable 'cn' assigned to Register 'R1/R2/R3' ----
                                           ; SOURCE LINE # 122
                                           ; SOURCE LINE # 126
0004 D3                SETB    C
0005 E500        R     MOV     A,y
0007 9407              SUBB    A,#07H
0009 7480              MOV     A,#080H
000B 9480              SUBB    A,#080H
000D 4003              JC      ?C0018
                                           ; SOURCE LINE # 127
                                           ; SOURCE LINE # 128
000F 7F00              MOV     R7,#00H
0011 22                RET     
                                           ; SOURCE LINE # 129
C51 COMPILER V9.60.0.0   ST7565                                                            04/21/2021 00:04:32 PAGE 9   

0012         ?C0018:
                                           ; SOURCE LINE # 132
0012 D3                SETB    C
0013 E500        R     MOV     A,x
0015 9480              SUBB    A,#080H
0017 7480              MOV     A,#080H
0019 9480              SUBB    A,#080H
001B 4003              JC      ?C0020
                                           ; SOURCE LINE # 133
                                           ; SOURCE LINE # 134
001D 7F00              MOV     R7,#00H
001F 22                RET     
                                           ; SOURCE LINE # 135
0020         ?C0020:
                                           ; SOURCE LINE # 136
0020 74B0              MOV     A,#0B0H
0022 2500        R     ADD     A,y
0024 F500        R     MOV     y,A
                                           ; SOURCE LINE # 138
0026 FF                MOV     R7,A
0027 120000      R     LCALL   _LcdSt7565_WriteCmd
002A         ?C0021:
                                           ; SOURCE LINE # 139
002A 120000      E     LCALL   ?C?CLDPTR
002D 7003              JNZ     $ + 5H
002F 020000      R     LJMP    ?C0022
                                           ; SOURCE LINE # 140
                                           ; SOURCE LINE # 143
0032 AF00        R     MOV     R7,y
0034 120000      R     LCALL   _LcdSt7565_WriteCmd
                                           ; SOURCE LINE # 145
0037 E500        R     MOV     A,x
0039 C4                SWAP    A
003A 540F              ANL     A,#0FH
003C F500        R     MOV     x1,A
                                           ; SOURCE LINE # 146
003E E500        R     MOV     A,x
0040 540F              ANL     A,#0FH
0042 F500        R     MOV     x2,A
                                           ; SOURCE LINE # 148
                                           ; SOURCE LINE # 149
0044 120000      R     LCALL   L?0033
                                           ; SOURCE LINE # 151
;---- Variable 'wordNum' assigned to Register 'R6' ----
0047 E4                CLR     A
0048 FE                MOV     R6,A
0049         ?C0023:
0049 EE                MOV     A,R6
004A C3                CLR     C
004B 9408              SUBB    A,#08H
004D 7480              MOV     A,#080H
004F 9480              SUBB    A,#080H
0051 4003              JC      $ + 5H
0053 020000      R     LJMP    ?C0024
                                           ; SOURCE LINE # 152
                                           ; SOURCE LINE # 154
0056 120000      E     LCALL   ?C?CLDPTR
0059 FF                MOV     R7,A
005A 75F023            MOV     B,#023H
005D EE                MOV     A,R6
005E A4                MUL     AB
005F 2400        R     ADD     A,#LOW CN16CHAR
C51 COMPILER V9.60.0.0   ST7565                                                            04/21/2021 00:04:32 PAGE 10  

0061 F582              MOV     DPL,A
0063 E5F0              MOV     A,B
0065 3400        R     ADDC    A,#HIGH CN16CHAR
0067 F583              MOV     DPH,A
0069 E4                CLR     A
006A 93                MOVC    A,@A+DPTR
006B 6F                XRL     A,R7
006C 6003              JZ      $ + 5H
006E 020000      R     LJMP    ?C0025
0071 900001            MOV     DPTR,#01H
0074 120000      E     LCALL   ?C?CLDOPTR
0077 FF                MOV     R7,A
0078 75F023            MOV     B,#023H
007B EE                MOV     A,R6
007C A4                MUL     AB
007D 2400        R     ADD     A,#LOW CN16CHAR+01H
007F F582              MOV     DPL,A
0081 E5F0              MOV     A,B
0083 3400        R     ADDC    A,#HIGH CN16CHAR+01H
0085 F583              MOV     DPH,A
0087 E4                CLR     A
0088 93                MOVC    A,@A+DPTR
0089 6F                XRL     A,R7
008A 7063              JNZ     ?C0025
008C 900002            MOV     DPTR,#02H
008F 120000      E     LCALL   ?C?CLDOPTR
0092 FF                MOV     R7,A
0093 75F023            MOV     B,#023H
0096 EE                MOV     A,R6
0097 A4                MUL     AB
0098 2400        R     ADD     A,#LOW CN16CHAR+02H
009A F582              MOV     DPL,A
009C E5F0              MOV     A,B
009E 3400        R     ADDC    A,#HIGH CN16CHAR+02H
00A0 F583              MOV     DPH,A
00A2 E4                CLR     A
00A3 93                MOVC    A,@A+DPTR
00A4 6F                XRL     A,R7
00A5 7048              JNZ     ?C0025
                                           ; SOURCE LINE # 158
                                           ; SOURCE LINE # 159
;---- Variable 'j' assigned to Register 'R5' ----
00A7 FD                MOV     R5,A
00A8         ?C0027:
00A8 ED                MOV     A,R5
00A9 F582              MOV     DPL,A
00AB 758300            MOV     DPH,#00H
00AE C3                CLR     C
00AF 9420              SUBB    A,#020H
00B1 7480              MOV     A,#080H
00B3 9480              SUBB    A,#080H
00B5 5032              JNC     ?C0028
                                           ; SOURCE LINE # 160
                                           ; SOURCE LINE # 161
00B7 E582              MOV     A,DPL
00B9 6410              XRL     A,#010H
00BB 700A              JNZ     ?C0030
                                           ; SOURCE LINE # 162
                                           ; SOURCE LINE # 164
00BD E500        R     MOV     A,y
00BF 04                INC     A
00C0 FF                MOV     R7,A
C51 COMPILER V9.60.0.0   ST7565                                                            04/21/2021 00:04:32 PAGE 11  

00C1 120000      R     LCALL   _LcdSt7565_WriteCmd
                                           ; SOURCE LINE # 167
                                           ; SOURCE LINE # 168
00C4 120000      R     LCALL   L?0033
                                           ; SOURCE LINE # 169
00C7         ?C0030:
                                           ; SOURCE LINE # 170
00C7 75F023            MOV     B,#023H
00CA EE                MOV     A,R6
00CB A4                MUL     AB
00CC 2400        R     ADD     A,#LOW CN16CHAR+03H
00CE F582              MOV     DPL,A
00D0 E5F0              MOV     A,B
00D2 3400        R     ADDC    A,#HIGH CN16CHAR+03H
00D4 F583              MOV     DPH,A
00D6 E582              MOV     A,DPL
00D8 2D                ADD     A,R5
00D9 F582              MOV     DPL,A
00DB E4                CLR     A
00DC 3583              ADDC    A,DPH
00DE F583              MOV     DPH,A
00E0 E4                CLR     A
00E1 93                MOVC    A,@A+DPTR
00E2 FF                MOV     R7,A
00E3 120000      R     LCALL   _LcdSt7565_WriteData
                                           ; SOURCE LINE # 171
00E6 0D                INC     R5
00E7 80BF              SJMP    ?C0027
00E9         ?C0028:
                                           ; SOURCE LINE # 172
00E9 7410              MOV     A,#010H
00EB 2500        R     ADD     A,x
00ED F500        R     MOV     x,A
                                           ; SOURCE LINE # 173
                                           ; SOURCE LINE # 174
00EF         ?C0025:
00EF 0E                INC     R6
00F0 020000      R     LJMP    ?C0023
00F3         ?C0024:
                                           ; SOURCE LINE # 175
00F3 7403              MOV     A,#03H
00F5 29                ADD     A,R1
00F6 F9                MOV     R1,A
00F7 E4                CLR     A
00F8 3A                ADDC    A,R2
00F9 FA                MOV     R2,A
                                           ; SOURCE LINE # 176
00FA 020000      R     LJMP    ?C0021
00FD         ?C0022:
                                           ; SOURCE LINE # 177
00FD 7F01              MOV     R7,#01H
                                           ; SOURCE LINE # 178
00FF         ?C0019:
00FF 22                RET     
             ; FUNCTION _Lcd12864_Write16CnCHAR (END)

C51 COMPILER V9.60.0.0   ST7565                                                            04/21/2021 00:04:32 PAGE 12  

NAME                                    CLASS   MSPACE  TYPE    OFFSET  SIZE
====                                    =====   ======  ====    ======  ====


P0 . . . . . . . . . . . . . . . . . .  SFR      DATA   U_CHAR   0080H  1
P1 . . . . . . . . . . . . . . . . . .  SFR      DATA   U_CHAR   0090H  1
P2 . . . . . . . . . . . . . . . . . .  SFR      DATA   U_CHAR   00A0H  1
P3 . . . . . . . . . . . . . . . . . .  SFR      DATA   U_CHAR   00B0H  1
T0 . . . . . . . . . . . . . . . . . .  ABSBIT   -----  BIT      00B4H  1
AC . . . . . . . . . . . . . . . . . .  ABSBIT   -----  BIT      00D6H  1
T1 . . . . . . . . . . . . . . . . . .  ABSBIT   -----  BIT      00B5H  1
T2 . . . . . . . . . . . . . . . . . .  ABSBIT   -----  BIT      0090H  1
EA . . . . . . . . . . . . . . . . . .  ABSBIT   -----  BIT      00AFH  1
IE . . . . . . . . . . . . . . . . . .  SFR      DATA   U_CHAR   00A8H  1
Lcd12864_Init. . . . . . . . . . . . .  PUBLIC   CODE   PROC     0000H  -----
EXF2 . . . . . . . . . . . . . . . . .  ABSBIT   -----  BIT      00CEH  1
RD . . . . . . . . . . . . . . . . . .  ABSBIT   -----  BIT      00B7H  1
ES . . . . . . . . . . . . . . . . . .  ABSBIT   -----  BIT      00ACH  1
CN16CHAR . . . . . . . . . . . . . . .  PUBLIC   CODE   ARRAY    0000H  280
IP . . . . . . . . . . . . . . . . . .  SFR      DATA   U_CHAR   00B8H  1
RI . . . . . . . . . . . . . . . . . .  ABSBIT   -----  BIT      0098H  1
INT0 . . . . . . . . . . . . . . . . .  ABSBIT   -----  BIT      00B2H  1
CY . . . . . . . . . . . . . . . . . .  ABSBIT   -----  BIT      00D7H  1
TI . . . . . . . . . . . . . . . . . .  ABSBIT   -----  BIT      0099H  1
INT1 . . . . . . . . . . . . . . . . .  ABSBIT   -----  BIT      00B3H  1
_LcdSt7565_WriteData . . . . . . . . .  PUBLIC   CODE   PROC     0000H  -----
  dat. . . . . . . . . . . . . . . . .  * REG *  DATA   U_CHAR   0007H  1
RCAP2H . . . . . . . . . . . . . . . .  SFR      DATA   U_CHAR   00CBH  1
PS . . . . . . . . . . . . . . . . . .  ABSBIT   -----  BIT      00BCH  1
SP . . . . . . . . . . . . . . . . . .  SFR      DATA   U_CHAR   0081H  1
T2EX . . . . . . . . . . . . . . . . .  ABSBIT   -----  BIT      0091H  1
OV . . . . . . . . . . . . . . . . . .  ABSBIT   -----  BIT      00D2H  1
RCAP2L . . . . . . . . . . . . . . . .  SFR      DATA   U_CHAR   00CAH  1
C_T2 . . . . . . . . . . . . . . . . .  ABSBIT   -----  BIT      00C9H  1
WR . . . . . . . . . . . . . . . . . .  ABSBIT   -----  BIT      00B6H  1
RCLK . . . . . . . . . . . . . . . . .  ABSBIT   -----  BIT      00CDH  1
TCLK . . . . . . . . . . . . . . . . .  ABSBIT   -----  BIT      00CCH  1
SBUF . . . . . . . . . . . . . . . . .  SFR      DATA   U_CHAR   0099H  1
PCON . . . . . . . . . . . . . . . . .  SFR      DATA   U_CHAR   0087H  1
SCON . . . . . . . . . . . . . . . . .  SFR      DATA   U_CHAR   0098H  1
TMOD . . . . . . . . . . . . . . . . .  SFR      DATA   U_CHAR   0089H  1
TCON . . . . . . . . . . . . . . . . .  SFR      DATA   U_CHAR   0088H  1
_LcdSt7565_WriteCmd. . . . . . . . . .  PUBLIC   CODE   PROC     000DH  -----
  cmd. . . . . . . . . . . . . . . . .  * REG *  DATA   U_CHAR   0007H  1
IE0. . . . . . . . . . . . . . . . . .  ABSBIT   -----  BIT      0089H  1
IE1. . . . . . . . . . . . . . . . . .  ABSBIT   -----  BIT      008BH  1
B. . . . . . . . . . . . . . . . . . .  SFR      DATA   U_CHAR   00F0H  1
_Lcd12864_Write16CnCHAR. . . . . . . .  PUBLIC   CODE   PROC     0000H  -----
  x. . . . . . . . . . . . . . . . . .  AUTO     DATA   U_CHAR   0000H  1
  y. . . . . . . . . . . . . . . . . .  AUTO     DATA   U_CHAR   0001H  1
  cn . . . . . . . . . . . . . . . . .  * REG *  DATA   PTR      0001H  3
  j. . . . . . . . . . . . . . . . . .  * REG *  DATA   U_CHAR   0005H  1
  x1 . . . . . . . . . . . . . . . . .  AUTO     DATA   U_CHAR   0002H  1
  x2 . . . . . . . . . . . . . . . . .  AUTO     DATA   U_CHAR   0003H  1
  wordNum. . . . . . . . . . . . . . .  * REG *  DATA   U_CHAR   0006H  1
CP_RL2 . . . . . . . . . . . . . . . .  ABSBIT   -----  BIT      00C8H  1
ACC. . . . . . . . . . . . . . . . . .  SFR      DATA   U_CHAR   00E0H  1
ET0. . . . . . . . . . . . . . . . . .  ABSBIT   -----  BIT      00A9H  1
Lcd12864_ClearScreen . . . . . . . . .  PUBLIC   CODE   PROC     0000H  -----
  page . . . . . . . . . . . . . . . .  * REG *  DATA   U_CHAR   0006H  1
  x. . . . . . . . . . . . . . . . . .  * REG *  DATA   U_CHAR   0005H  1
C51 COMPILER V9.60.0.0   ST7565                                                            04/21/2021 00:04:32 PAGE 13  

NAME                                    CLASS   MSPACE  TYPE    OFFSET  SIZE
====                                    =====   ======  ====    ======  ====


ET1. . . . . . . . . . . . . . . . . .  ABSBIT   -----  BIT      00ABH  1
TF0. . . . . . . . . . . . . . . . . .  ABSBIT   -----  BIT      008DH  1
ET2. . . . . . . . . . . . . . . . . .  ABSBIT   -----  BIT      00ADH  1
TF1. . . . . . . . . . . . . . . . . .  ABSBIT   -----  BIT      008FH  1
TF2. . . . . . . . . . . . . . . . . .  ABSBIT   -----  BIT      00CFH  1
RB8. . . . . . . . . . . . . . . . . .  ABSBIT   -----  BIT      009AH  1
TH0. . . . . . . . . . . . . . . . . .  SFR      DATA   U_CHAR   008CH  1
EX0. . . . . . . . . . . . . . . . . .  ABSBIT   -----  BIT      00A8H  1
IT0. . . . . . . . . . . . . . . . . .  ABSBIT   -----  BIT      0088H  1
TH1. . . . . . . . . . . . . . . . . .  SFR      DATA   U_CHAR   008DH  1
TB8. . . . . . . . . . . . . . . . . .  ABSBIT   -----  BIT      009BH  1
EX1. . . . . . . . . . . . . . . . . .  ABSBIT   -----  BIT      00AAH  1
IT1. . . . . . . . . . . . . . . . . .  ABSBIT   -----  BIT      008AH  1
TH2. . . . . . . . . . . . . . . . . .  SFR      DATA   U_CHAR   00CDH  1
P. . . . . . . . . . . . . . . . . . .  ABSBIT   -----  BIT      00D0H  1
Cn16CharTypeDef. . . . . . . . . . . .  * TAG *  -----  STRUCT   -----  35
  Index. . . . . . . . . . . . . . . .  MEMBER   -----  ARRAY    0000H  3
  Msk. . . . . . . . . . . . . . . . .  MEMBER   -----  ARRAY    0003H  32
SM0. . . . . . . . . . . . . . . . . .  ABSBIT   -----  BIT      009FH  1
TL0. . . . . . . . . . . . . . . . . .  SFR      DATA   U_CHAR   008AH  1
LCD12864_RD. . . . . . . . . . . . . .  ABSBIT   -----  BIT      00A5H  1
LCD12864_CS. . . . . . . . . . . . . .  ABSBIT   -----  BIT      00B2H  1
SM1. . . . . . . . . . . . . . . . . .  ABSBIT   -----  BIT      009EH  1
TL1. . . . . . . . . . . . . . . . . .  SFR      DATA   U_CHAR   008BH  1
SM2. . . . . . . . . . . . . . . . . .  ABSBIT   -----  BIT      009DH  1
TL2. . . . . . . . . . . . . . . . . .  SFR      DATA   U_CHAR   00CCH  1
_delay_ms. . . . . . . . . . . . . . .  PUBLIC   CODE   PROC     0000H  -----
  t. . . . . . . . . . . . . . . . . .  * REG *  DATA   U_INT    0006H  2
  i. . . . . . . . . . . . . . . . . .  * REG *  DATA   U_INT    0004H  2
  j. . . . . . . . . . . . . . . . . .  * REG *  DATA   U_INT    0002H  2
PT0. . . . . . . . . . . . . . . . . .  ABSBIT   -----  BIT      00B9H  1
PT1. . . . . . . . . . . . . . . . . .  ABSBIT   -----  BIT      00BBH  1
RS0. . . . . . . . . . . . . . . . . .  ABSBIT   -----  BIT      00D3H  1
PT2. . . . . . . . . . . . . . . . . .  ABSBIT   -----  BIT      00BDH  1
TR0. . . . . . . . . . . . . . . . . .  ABSBIT   -----  BIT      008CH  1
RS1. . . . . . . . . . . . . . . . . .  ABSBIT   -----  BIT      00D4H  1
TR1. . . . . . . . . . . . . . . . . .  ABSBIT   -----  BIT      008EH  1
TR2. . . . . . . . . . . . . . . . . .  ABSBIT   -----  BIT      00CAH  1
PX0. . . . . . . . . . . . . . . . . .  ABSBIT   -----  BIT      00B8H  1
PX1. . . . . . . . . . . . . . . . . .  ABSBIT   -----  BIT      00BAH  1
DPH. . . . . . . . . . . . . . . . . .  SFR      DATA   U_CHAR   0083H  1
LCD12864_RS. . . . . . . . . . . . . .  ABSBIT   -----  BIT      00A6H  1
DPL. . . . . . . . . . . . . . . . . .  SFR      DATA   U_CHAR   0082H  1
EXEN2. . . . . . . . . . . . . . . . .  ABSBIT   -----  BIT      00CBH  1
LCD12864_WR. . . . . . . . . . . . . .  ABSBIT   -----  BIT      00A7H  1
REN. . . . . . . . . . . . . . . . . .  ABSBIT   -----  BIT      009CH  1
T2CON. . . . . . . . . . . . . . . . .  SFR      DATA   U_CHAR   00C8H  1
RXD. . . . . . . . . . . . . . . . . .  ABSBIT   -----  BIT      00B0H  1
TXD. . . . . . . . . . . . . . . . . .  ABSBIT   -----  BIT      00B1H  1
F0 . . . . . . . . . . . . . . . . . .  ABSBIT   -----  BIT      00D5H  1
LCD12864_RSET. . . . . . . . . . . . .  ABSBIT   -----  BIT      00B3H  1
PSW. . . . . . . . . . . . . . . . . .  SFR      DATA   U_CHAR   00D0H  1


MODULE INFORMATION:   STATIC OVERLAYABLE
   CODE SIZE        =    486    ----
   CONSTANT SIZE    =    280    ----
   XDATA SIZE       =   ----    ----
C51 COMPILER V9.60.0.0   ST7565                                                            04/21/2021 00:04:32 PAGE 14  

   PDATA SIZE       =   ----    ----
   DATA SIZE        =   ----       4
   IDATA SIZE       =   ----    ----
   BIT SIZE         =   ----    ----
   EDATA SIZE       =   ----    ----
   HDATA SIZE       =   ----    ----
   XDATA CONST SIZE =   ----    ----
   FAR CONST SIZE   =   ----    ----
END OF MODULE INFORMATION.


C51 COMPILATION COMPLETE.  0 WARNING(S),  0 ERROR(S)
